target datalayout = "e-m:e-p270:32:32-p271:32:32-p272:64:64-i64:64-i128:128-f80:128-n8:16:32:64-S128"
target triple = "x86_64-pc-linux-gnu"

%struct.anon = type { i64, i64 }
%class.ZSafePageRecycle = type { ptr, %class.ZActivatedArray }
%class.ZActivatedArray = type { ptr, i64, %class.GrowableArrayCHeap }
%class.GrowableArrayCHeap = type { %class.GrowableArrayWithAllocator }
%class.GrowableArrayWithAllocator = type { %class.GrowableArrayView }
%class.GrowableArrayView = type { %class.GrowableArrayBase, ptr }
%class.GrowableArrayBase = type { i32, i32 }
%class.ZListNode = type { ptr, ptr }
%class.ZPageAllocator = type <{ %class.ZLock, %class.ZPageCache, %class.ZVirtualMemoryManager, %class.ZPhysicalMemoryManager, i64, i64, i64, i64, i64, i64, i64, [2 x i64], [2 x %struct.anon], %class.ZList.7, ptr, ptr, %class.ZSafeDelete, %class.ZSafePageRecycle, i8, [7 x i8] }>
%class.ZLock = type { %class.PlatformMutex }
%class.PlatformMutex = type { %union.pthread_mutex_t }
%union.pthread_mutex_t = type { %struct.__pthread_mutex_s }
%struct.__pthread_mutex_s = type { i32, i32, i32, i32, i32, i16, i16, %struct.__pthread_internal_list }
%struct.__pthread_internal_list = type { ptr, ptr }
%class.ZPageCache = type { %class.ZValue, %class.ZList, %class.ZList, i64 }
%class.ZValue = type { i64 }
%class.ZList = type { %class.ZListNode, i64 }
%class.ZVirtualMemoryManager = type <{ %class.ZMemoryManager, i64, i8, [7 x i8] }>
%class.ZMemoryManager = type { %class.ZLock, %class.ZList.5, %"struct.ZMemoryManager::Callbacks" }
%class.ZList.5 = type { %class.ZListNode.6, i64 }
%class.ZListNode.6 = type { ptr, ptr }
%"struct.ZMemoryManager::Callbacks" = type { ptr, ptr, ptr, ptr, ptr, ptr }
%class.ZPhysicalMemoryManager = type { %class.ZPhysicalMemoryBacking, %class.ZMemoryManager }
%class.ZPhysicalMemoryBacking = type <{ i32, [4 x i8], i64, i64, i64, i64, i8, [7 x i8] }>
%class.ZList.7 = type { %class.ZListNode.8, i64 }
%class.ZListNode.8 = type { ptr, ptr }
%class.ZSafeDelete = type { %class.ZActivatedArray }

; Function Attrs: mustprogress nounwind uwtable
define hidden void @_ZN14ZPageAllocator16reset_statisticsE13ZGenerationId(ptr noundef nonnull align 8 dereferenceable(609) %0, i8 noundef zeroext %1) #1 align 2 {
  %3 = alloca ptr, align 8
  %4 = alloca i8, align 1
  store ptr %0, ptr %3, align 8
  store i8 %1, ptr %4, align 1
  %5 = load ptr, ptr %3, align 8
  %6 = getelementptr inbounds %class.ZPageAllocator, ptr %5, i32 0, i32 10
  %7 = load volatile i64, ptr %6, align 8
  %8 = getelementptr inbounds %class.ZPageAllocator, ptr %5, i32 0, i32 12
  %9 = load i8, ptr %4, align 1
  %10 = zext i8 %9 to i32
  %11 = sext i32 %10 to i64
  %12 = getelementptr inbounds [2 x %struct.anon], ptr %8, i64 0, i64 %11
  %13 = getelementptr inbounds %struct.anon, ptr %12, i32 0, i32 0
  store i64 %7, ptr %13, align 8
  %14 = getelementptr inbounds %class.ZPageAllocator, ptr %5, i32 0, i32 10
  %15 = load volatile i64, ptr %14, align 8
  %16 = getelementptr inbounds %class.ZPageAllocator, ptr %5, i32 0, i32 12
  %17 = load i8, ptr %4, align 1
  %18 = zext i8 %17 to i32
  %19 = sext i32 %18 to i64
  %20 = getelementptr inbounds [2 x %struct.anon], ptr %16, i64 0, i64 %19
  %21 = getelementptr inbounds %struct.anon, ptr %20, i32 0, i32 1
  store i64 %15, ptr %21, align 8
  ret void
}