; Function Attrs: mustprogress nofree norecurse nounwind willreturn memory(argmem: readwrite, inaccessiblemem: readwrite) uwtable
define hidden void @_ZN14ZPageAllocator16reset_statisticsE13ZGenerationId(ptr noundef nonnull align 8 dereferenceable(609) %0, i8 noundef zeroext %1) local_unnamed_addr #5 align 2 {
  %3 = getelementptr inbounds i8, ptr %0, i64 440
  %4 = load volatile i64, ptr %3, align 8
  %5 = getelementptr inbounds i8, ptr %0, i64 464
  %6 = zext i8 %1 to i64
  %7 = getelementptr inbounds [2 x %struct.anon], ptr %5, i64 0, i64 %6
  store i64 %4, ptr %7, align 8
  %8 = load volatile i64, ptr %3, align 8
  %9 = getelementptr inbounds i8, ptr %7, i64 8
  store i64 %8, ptr %9, align 8
  ret void
}